target datalayout = "e-m:e-p270:32:32-p271:32:32-p272:64:64-i64:64-i128:128-f80:128-n8:16:32:64-S128"
target triple = "x86_64-unknown-linux-gnu"

%union.pthread_mutex_t = type { %struct.__pthread_mutex_s }
%struct.__pthread_mutex_s = type { i32, i32, i32, i32, i32, i16, i16, %struct.__pthread_internal_list }
%struct.__pthread_internal_list = type { ptr, ptr }
%"class.std::__cxx11::basic_string" = type { %"struct.std::__cxx11::basic_string<char>::_Alloc_hider", i64, %union.anon.0 }
%"struct.std::__cxx11::basic_string<char>::_Alloc_hider" = type { ptr }
%union.anon.0 = type { i64, [8 x i8] }
%"class.OpenImageIO_v2_6_0::Filesystem::IOProxy" = type { ptr, %"class.std::__cxx11::basic_string", i64, i32, %"class.std::__cxx11::basic_string" }
%"class.OpenImageIO_v2_6_0::Filesystem::IOFile" = type { %"class.OpenImageIO_v2_6_0::Filesystem::IOProxy", ptr, i64, i8, %"class.std::mutex" }
%"class.std::mutex" = type { %"class.std::__mutex_base" }
%"class.std::__mutex_base" = type { %union.pthread_mutex_t }

; Function Attrs: mustprogress uwtable
define noundef i32 @_ZN18OpenImageIO_v2_6_010Filesystem5fseekEP8_IO_FILEli(ptr noundef %file, i64 noundef %offset, i32 noundef %whence) #6 {
entry:
  %file.addr = alloca ptr, align 8
  %offset.addr = alloca i64, align 8
  %whence.addr = alloca i32, align 4
  store ptr %file, ptr %file.addr, align 8
  store i64 %offset, ptr %offset.addr, align 8
  store i32 %whence, ptr %whence.addr, align 4
  %0 = load ptr, ptr %file.addr, align 8
  %1 = load i64, ptr %offset.addr, align 8
  %2 = load i32, ptr %whence.addr, align 4
  %call = call i32 @fseeko(ptr noundef %0, i64 noundef %1, i32 noundef %2)
  ret i32 %call
}

; Function Attrs: mustprogress uwtable
define noundef zeroext i1 @_ZN18OpenImageIO_v2_6_010Filesystem6IOFile4seekEl(ptr noundef nonnull align 8 dereferenceable(152) %this, i64 noundef %offset) unnamed_addr #6 align 2 {
entry:
  %retval = alloca i1, align 1
  %this.addr = alloca ptr, align 8
  %offset.addr = alloca i64, align 8
  store ptr %this, ptr %this.addr, align 8
  store i64 %offset, ptr %offset.addr, align 8
  %this1 = load ptr, ptr %this.addr, align 8
  %m_file = getelementptr inbounds %"class.OpenImageIO_v2_6_0::Filesystem::IOFile", ptr %this1, i32 0, i32 1
  %0 = load ptr, ptr %m_file, align 8
  %tobool = icmp ne ptr %0, null
  br i1 %tobool, label %if.end, label %if.then

if.then:                                          ; preds = %entry
  store i1 false, ptr %retval, align 1
  br label %return

if.end:                                           ; preds = %entry
  %1 = load i64, ptr %offset.addr, align 8
  %m_pos = getelementptr inbounds %"class.OpenImageIO_v2_6_0::Filesystem::IOProxy", ptr %this1, i32 0, i32 2
  store i64 %1, ptr %m_pos, align 8
  %m_file2 = getelementptr inbounds %"class.OpenImageIO_v2_6_0::Filesystem::IOFile", ptr %this1, i32 0, i32 1
  %2 = load ptr, ptr %m_file2, align 8
  %3 = load i64, ptr %offset.addr, align 8
  %call = call noundef i32 @_ZN18OpenImageIO_v2_6_010Filesystem5fseekEP8_IO_FILEli(ptr noundef %2, i64 noundef %3, i32 noundef 0)
  %cmp = icmp eq i32 %call, 0
  store i1 %cmp, ptr %retval, align 1
  br label %return

return:                                           ; preds = %if.end, %if.then
  %4 = load i1, ptr %retval, align 1
  ret i1 %4
}