; Function Attrs: mustprogress nofree nounwind uwtable
define noundef zeroext i1 @_ZN18OpenImageIO_v2_6_010Filesystem6IOFile4seekEl(ptr nocapture noundef nonnull align 8 dereferenceable(152) %this, i64 noundef %offset) unnamed_addr #10 align 2 {
entry:
  %m_file = getelementptr inbounds i8, ptr %this, i64 88
  %0 = load ptr, ptr %m_file, align 8
  %tobool.not = icmp eq ptr %0, null
  br i1 %tobool.not, label %return, label %if.end

if.end:                                           ; preds = %entry
  %m_pos = getelementptr inbounds i8, ptr %this, i64 40
  store i64 %offset, ptr %m_pos, align 8
  %call.i = tail call noundef i32 @fseeko(ptr noundef nonnull %0, i64 noundef %offset, i32 noundef 0)
  %cmp = icmp eq i32 %call.i, 0
  br label %return

return:                                           ; preds = %entry, %if.end
  %retval.0 = phi i1 [ %cmp, %if.end ], [ false, %entry ]
  ret i1 %retval.0
}